; ModuleID = '24/1299.c'
source_filename = "24/1299.c"
target datalayout = "e-m:e-p270:32:32-p271:32:32-p272:64:64-i64:64-f80:128-n8:16:32:64-S128"
target triple = "x86_64-pc-linux-gnu"

@.str = private unnamed_addr constant [4 x i8] c"%s\0A\00", align 1

; Function Attrs: noinline nounwind uwtable
define dso_local i32 @main() #0 {
  %1 = alloca i32, align 4
  %2 = alloca [200 x i8], align 16
  %3 = alloca [50 x [50 x i8]], align 16
  %4 = alloca i32, align 4
  %5 = alloca i32, align 4
  %6 = alloca i32, align 4
  %7 = alloca i32, align 4
  %8 = alloca i32, align 4
  %9 = alloca i32, align 4
  %10 = alloca i32, align 4
  %11 = alloca [50 x i32], align 16
  store i32 0, i32* %1, align 4
  store i32 0, i32* %5, align 4
  store i32 0, i32* %6, align 4
  %12 = getelementptr inbounds [200 x i8], [200 x i8]* %2, i64 0, i64 0
  %13 = call i32 (i8*, ...) bitcast (i32 (...)* @gets to i32 (i8*, ...)*)(i8* %12)
  %14 = getelementptr inbounds [200 x i8], [200 x i8]* %2, i64 0, i64 0
  %15 = call i64 @strlen(i8* %14) #3
  %16 = trunc i64 %15 to i32
  store i32 %16, i32* %4, align 4
  store i32 0, i32* %7, align 4
  br label %17

17:                                               ; preds = %51, %0
  %18 = load i32, i32* %7, align 4
  %19 = load i32, i32* %4, align 4
  %20 = icmp slt i32 %18, %19
  br i1 %20, label %21, label %54

21:                                               ; preds = %17
  %22 = load i32, i32* %7, align 4
  %23 = sext i32 %22 to i64
  %24 = getelementptr inbounds [200 x i8], [200 x i8]* %2, i64 0, i64 %23
  %25 = load i8, i8* %24, align 1
  %26 = sext i8 %25 to i32
  %27 = icmp ne i32 %26, 32
  br i1 %27, label %28, label %41

28:                                               ; preds = %21
  %29 = load i32, i32* %7, align 4
  %30 = sext i32 %29 to i64
  %31 = getelementptr inbounds [200 x i8], [200 x i8]* %2, i64 0, i64 %30
  %32 = load i8, i8* %31, align 1
  %33 = load i32, i32* %5, align 4
  %34 = sext i32 %33 to i64
  %35 = getelementptr inbounds [50 x [50 x i8]], [50 x [50 x i8]]* %3, i64 0, i64 %34
  %36 = load i32, i32* %6, align 4
  %37 = sext i32 %36 to i64
  %38 = getelementptr inbounds [50 x i8], [50 x i8]* %35, i64 0, i64 %37
  store i8 %32, i8* %38, align 1
  %39 = load i32, i32* %6, align 4
  %40 = add nsw i32 %39, 1
  store i32 %40, i32* %6, align 4
  br label %50

41:                                               ; preds = %21
  %42 = load i32, i32* %5, align 4
  %43 = sext i32 %42 to i64
  %44 = getelementptr inbounds [50 x [50 x i8]], [50 x [50 x i8]]* %3, i64 0, i64 %43
  %45 = load i32, i32* %6, align 4
  %46 = sext i32 %45 to i64
  %47 = getelementptr inbounds [50 x i8], [50 x i8]* %44, i64 0, i64 %46
  store i8 0, i8* %47, align 1
  store i32 0, i32* %6, align 4
  %48 = load i32, i32* %5, align 4
  %49 = add nsw i32 %48, 1
  store i32 %49, i32* %5, align 4
  br label %50

50:                                               ; preds = %41, %28
  br label %51

51:                                               ; preds = %50
  %52 = load i32, i32* %7, align 4
  %53 = add nsw i32 %52, 1
  store i32 %53, i32* %7, align 4
  br label %17

54:                                               ; preds = %17
  %55 = load i32, i32* %5, align 4
  %56 = sext i32 %55 to i64
  %57 = getelementptr inbounds [50 x [50 x i8]], [50 x [50 x i8]]* %3, i64 0, i64 %56
  %58 = load i32, i32* %6, align 4
  %59 = sext i32 %58 to i64
  %60 = getelementptr inbounds [50 x i8], [50 x i8]* %57, i64 0, i64 %59
  store i8 0, i8* %60, align 1
  store i32 0, i32* %9, align 4
  br label %61

61:                                               ; preds = %75, %54
  %62 = load i32, i32* %9, align 4
  %63 = load i32, i32* %5, align 4
  %64 = icmp sle i32 %62, %63
  br i1 %64, label %65, label %78

65:                                               ; preds = %61
  %66 = load i32, i32* %9, align 4
  %67 = sext i32 %66 to i64
  %68 = getelementptr inbounds [50 x [50 x i8]], [50 x [50 x i8]]* %3, i64 0, i64 %67
  %69 = getelementptr inbounds [50 x i8], [50 x i8]* %68, i64 0, i64 0
  %70 = call i64 @strlen(i8* %69) #3
  %71 = trunc i64 %70 to i32
  %72 = load i32, i32* %9, align 4
  %73 = sext i32 %72 to i64
  %74 = getelementptr inbounds [50 x i32], [50 x i32]* %11, i64 0, i64 %73
  store i32 %71, i32* %74, align 4
  br label %75

75:                                               ; preds = %65
  %76 = load i32, i32* %9, align 4
  %77 = add nsw i32 %76, 1
  store i32 %77, i32* %9, align 4
  br label %61

78:                                               ; preds = %61
  store i32 0, i32* %8, align 4
  store i32 1, i32* %9, align 4
  br label %79

79:                                               ; preds = %103, %78
  %80 = load i32, i32* %9, align 4
  %81 = load i32, i32* %5, align 4
  %82 = icmp sle i32 %80, %81
  br i1 %82, label %83, label %106

83:                                               ; preds = %79
  %84 = load i32, i32* %8, align 4
  %85 = sext i32 %84 to i64
  %86 = getelementptr inbounds [50 x i32], [50 x i32]* %11, i64 0, i64 %85
  %87 = load i32, i32* %86, align 4
  %88 = load i32, i32* %9, align 4
  %89 = sext i32 %88 to i64
  %90 = getelementptr inbounds [50 x i32], [50 x i32]* %11, i64 0, i64 %89
  %91 = load i32, i32* %90, align 4
  %92 = icmp slt i32 %87, %91
  br i1 %92, label %93, label %102

93:                                               ; preds = %83
  %94 = load i32, i32* %9, align 4
  %95 = sext i32 %94 to i64
  %96 = getelementptr inbounds [50 x i32], [50 x i32]* %11, i64 0, i64 %95
  %97 = load i32, i32* %96, align 4
  %98 = load i32, i32* %8, align 4
  %99 = sext i32 %98 to i64
  %100 = getelementptr inbounds [50 x i32], [50 x i32]* %11, i64 0, i64 %99
  store i32 %97, i32* %100, align 4
  %101 = load i32, i32* %9, align 4
  store i32 %101, i32* %8, align 4
  br label %102

102:                                              ; preds = %93, %83
  br label %103

103:                                              ; preds = %102
  %104 = load i32, i32* %9, align 4
  %105 = add nsw i32 %104, 1
  store i32 %105, i32* %9, align 4
  br label %79

106:                                              ; preds = %79
  %107 = getelementptr inbounds [50 x [50 x i8]], [50 x [50 x i8]]* %3, i64 0, i64 0
  %108 = getelementptr inbounds [50 x i8], [50 x i8]* %107, i64 0, i64 0
  %109 = call i64 @strlen(i8* %108) #3
  %110 = trunc i64 %109 to i32
  %111 = getelementptr inbounds [50 x i32], [50 x i32]* %11, i64 0, i64 0
  store i32 %110, i32* %111, align 16
  store i32 0, i32* %10, align 4
  store i32 1, i32* %9, align 4
  br label %112

112:                                              ; preds = %136, %106
  %113 = load i32, i32* %9, align 4
  %114 = load i32, i32* %5, align 4
  %115 = icmp sle i32 %113, %114
  br i1 %115, label %116, label %139

116:                                              ; preds = %112
  %117 = load i32, i32* %10, align 4
  %118 = sext i32 %117 to i64
  %119 = getelementptr inbounds [50 x i32], [50 x i32]* %11, i64 0, i64 %118
  %120 = load i32, i32* %119, align 4
  %121 = load i32, i32* %9, align 4
  %122 = sext i32 %121 to i64
  %123 = getelementptr inbounds [50 x i32], [50 x i32]* %11, i64 0, i64 %122
  %124 = load i32, i32* %123, align 4
  %125 = icmp sgt i32 %120, %124
  br i1 %125, label %126, label %135

126:                                              ; preds = %116
  %127 = load i32, i32* %9, align 4
  %128 = sext i32 %127 to i64
  %129 = getelementptr inbounds [50 x i32], [50 x i32]* %11, i64 0, i64 %128
  %130 = load i32, i32* %129, align 4
  %131 = load i32, i32* %10, align 4
  %132 = sext i32 %131 to i64
  %133 = getelementptr inbounds [50 x i32], [50 x i32]* %11, i64 0, i64 %132
  store i32 %130, i32* %133, align 4
  %134 = load i32, i32* %9, align 4
  store i32 %134, i32* %10, align 4
  br label %135

135:                                              ; preds = %126, %116
  br label %136

136:                                              ; preds = %135
  %137 = load i32, i32* %9, align 4
  %138 = add nsw i32 %137, 1
  store i32 %138, i32* %9, align 4
  br label %112

139:                                              ; preds = %112
  %140 = load i32, i32* %8, align 4
  %141 = sext i32 %140 to i64
  %142 = getelementptr inbounds [50 x [50 x i8]], [50 x [50 x i8]]* %3, i64 0, i64 %141
  %143 = getelementptr inbounds [50 x i8], [50 x i8]* %142, i64 0, i64 0
  %144 = call i32 (i8*, ...) @printf(i8* getelementptr inbounds ([4 x i8], [4 x i8]* @.str, i64 0, i64 0), i8* %143)
  %145 = load i32, i32* %10, align 4
  %146 = sext i32 %145 to i64
  %147 = getelementptr inbounds [50 x [50 x i8]], [50 x [50 x i8]]* %3, i64 0, i64 %146
  %148 = getelementptr inbounds [50 x i8], [50 x i8]* %147, i64 0, i64 0
  %149 = call i32 (i8*, ...) @printf(i8* getelementptr inbounds ([4 x i8], [4 x i8]* @.str, i64 0, i64 0), i8* %148)
  ret i32 0
}

declare dso_local i32 @gets(...) #1

; Function Attrs: nounwind readonly
declare dso_local i64 @strlen(i8*) #2

declare dso_local i32 @printf(i8*, ...) #1


!llvm.module.flags = !{!0}
!llvm.ident = !{!1}

!0 = !{i32 1, !"wchar_size", i32 4}
!1 = !{!"clang version 10.0.0-4ubuntu1 "}
